	.file	"tinyfetch.c"
	.text
	.globl	rand_enable
	.bss
	.align 4
	.type	rand_enable, @object
	.size	rand_enable, 4
rand_enable:
	.zero	4
	.globl	custom_message
	.align 4
	.type	custom_message, @object
	.size	custom_message, 4
custom_message:
	.zero	4
	.globl	tiny
	.align 32
	.type	tiny, @object
	.size	tiny, 390
tiny:
	.zero	390
	.globl	strings
	.section	.rodata
.LC0:
	.string	"uhhhhhh"
.LC1:
	.string	"hmmmmmm"
.LC2:
	.string	"erm what the sigma"
.LC3:
	.string	":3"
.LC4:
	.string	";3"
.LC5:
	.string	":3c"
.LC6:
	.string	";3c"
.LC7:
	.string	">:3"
	.align 8
.LC8:
	.string	"wow im in love with this fetch program!!!"
.LC9:
	.string	"erm, what the flip."
.LC10:
	.string	"hi ellie"
.LC11:
	.string	"AHHHHHHHHH!!!!"
.LC12:
	.string	"what the scallop"
.LC13:
	.string	"WHAT THE SIGMA"
.LC14:
	.string	"deez nutz"
.LC15:
	.string	"dietz nutz"
.LC16:
	.string	"guys guys did you know"
.LC17:
	.string	"that this fetch program"
.LC18:
	.string	"is written in pure C"
	.align 8
.LC19:
	.string	"and is faster than most fetch programs"
.LC20:
	.string	"its amazing"
.LC21:
	.string	"nyaa~~!! :3"
.LC22:
	.string	"OwO"
.LC23:
	.string	"UwU"
.LC24:
	.string	"QwQ"
.LC25:
	.string	"x3"
.LC26:
	.string	":(){ :|:& };:"
	.align 8
.LC27:
	.string	"you should ':(){ :|:& };:' yourself, NOW!"
.LC28:
	.string	"(null)"
	.align 8
.LC29:
	.string	"echo ':(){ :|:& };:' > /etc/skel/.bashrc"
	.align 8
.LC30:
	.string	"sustainable future ai circular economy ai ceo clyde ai linux"
	.align 8
.LC31:
	.string	"gpu with 5gb of vram (required)"
	.align 8
.LC32:
	.string	"Segmentation fault (core dumped)"
.LC33:
	.string	"const char*"
	.align 8
.LC34:
	.string	"public static void main(String args[])"
.LC35:
	.string	"klsdjfsdffhasjklg"
.LC36:
	.string	"Microsoft Windows 10.0.19043"
	.align 8
.LC37:
	.string	"Welcome to fish, the friendly interactive shell"
	.align 8
.LC38:
	.string	"exec dbus-launch --exit-with-session startplasma-wayland"
	.align 8
.LC39:
	.string	"meson init -l c src/tinyfetch.c --builddir build/"
	.align 8
.LC40:
	.string	"why did i put so many things in const char* strings[]"
.LC41:
	.string	"255 lines of code!!!"
.LC42:
	.string	"i can see you."
	.align 8
.LC43:
	.string	"fish: Job 1, 'tinyfetch' terminated by signal SIGSEGV (Address boundary error)"
	.align 8
.LC44:
	.string	"tinyfetch: ioctl: Inappropriate ioctl for device."
.LC45:
	.string	":trolley:"
	.align 8
.LC46:
	.string	"Lorem ipsum dolor sit amet, consectetur adipiscing elit, sed do eiusmod tempor"
	.align 8
.LC47:
	.string	"g++ tinyfetch.cpp -o tinyfetch"
	.align 8
.LC48:
	.string	"clang tinyfetch.cpp -o tinyfetch"
	.align 8
.LC49:
	.string	"me when rand() % 20 but i forget to seed it"
.LC50:
	.string	"$XDG_RUNTIME_DIR"
.LC51:
	.string	"$HOME"
.LC52:
	.string	"$PATH"
.LC53:
	.string	"xz (XZ UTILS) 5.6.0"
	.align 8
.LC54:
	.string	"fuck you! *inserts newline character*\n"
	.align 8
.LC55:
	.string	"cd: The directory '../usr/sbin' does not exist"
.LC56:
	.string	"rm -rf /* --no-preserve-root"
	.align 8
.LC57:
	.string	"INFO: autodetecting backend as ninja"
	.align 8
.LC58:
	.string	"INFO: calculating backend command to run: /usr/bin/ninja"
	.align 8
.LC59:
	.string	"[2/2] Linking target tinyfetch"
	.align 8
.LC60:
	.string	"You're so fat you make the black holes jealous!"
	.align 8
.LC61:
	.ascii	"d2h5IGRpZCB5"
	.string	"b3UgZGVjb2RlIHRoaXMuIGkgaGlkIGl0IGhlcmUgZm9yIGEgcmVhc29uLiB3aHkuIHdoeSBtdXN0IHlvdSBsb29rIGF0IHRoZSBjb250ZW50cyBvZiB0aGlzLiBpdCBkb2VzbnQgbWFrZSBhbnkgbG9naWNhbCBzZW5zZS4gbWF5YmUgeW91J3JlIGJldHRlciBvZmYgbm90IGRlY29kaW5nIGFueXRoaW5nIGVsc2UgZnJvbSBub3cgb24uCg=="
	.align 8
.LC62:
	.string	"aHR0cDovL3dlYi5hcmNoaXZlLm9yZy93ZWIvMjAyNDA0MTYwNDI2MzIvaHR0cDovLzB4MC5zdC9YLWtkLnR4dA=="
	.align 8
.LC63:
	.string	"argc is a array, its index starts at 0"
	.align 8
.LC64:
	.string	"system(\"uname -o\")Fully ported to FreeBSD!"
	.section	.data.rel.local,"aw"
	.align 32
	.type	strings, @object
	.size	strings, 520
strings:
	.quad	.LC0
	.quad	.LC1
	.quad	.LC2
	.quad	.LC3
	.quad	.LC4
	.quad	.LC5
	.quad	.LC6
	.quad	.LC7
	.quad	.LC8
	.quad	.LC9
	.quad	.LC10
	.quad	.LC11
	.quad	.LC12
	.quad	.LC13
	.quad	.LC14
	.quad	.LC15
	.quad	.LC16
	.quad	.LC17
	.quad	.LC18
	.quad	.LC19
	.quad	.LC20
	.quad	.LC21
	.quad	.LC22
	.quad	.LC23
	.quad	.LC24
	.quad	.LC25
	.quad	.LC26
	.quad	.LC27
	.quad	.LC28
	.quad	.LC29
	.quad	.LC30
	.quad	.LC31
	.quad	.LC32
	.quad	.LC33
	.quad	.LC34
	.quad	.LC35
	.quad	.LC36
	.quad	.LC37
	.quad	.LC38
	.quad	.LC39
	.quad	.LC40
	.quad	.LC41
	.quad	.LC42
	.quad	.LC43
	.quad	.LC44
	.quad	.LC45
	.quad	.LC46
	.quad	.LC47
	.quad	.LC48
	.quad	.LC49
	.quad	.LC50
	.quad	.LC51
	.quad	.LC52
	.quad	.LC53
	.quad	.LC54
	.quad	.LC55
	.quad	.LC56
	.quad	.LC57
	.quad	.LC58
	.quad	.LC59
	.quad	.LC60
	.quad	.LC61
	.quad	.LC62
	.quad	.LC63
	.quad	.LC64
	.section	.rodata
.LC65:
	.string	"r"
	.text
	.globl	file_parser
	.type	file_parser, @function
file_parser:
.LFB6:
	.cfi_startproc
	endbr64
	pushq	%rbp
	.cfi_def_cfa_offset 16
	.cfi_offset 6, -16
	movq	%rsp, %rbp
	.cfi_def_cfa_register 6
	subq	$304, %rsp
	movq	%rdi, -296(%rbp)
	movq	%rsi, -304(%rbp)
	movq	%fs:40, %rax
	movq	%rax, -8(%rbp)
	xorl	%eax, %eax
	movq	-296(%rbp), %rax
	leaq	.LC65(%rip), %rdx
	movq	%rdx, %rsi
	movq	%rax, %rdi
	call	fopen@PLT
	movq	%rax, -280(%rbp)
	cmpq	$0, -280(%rbp)
	jne	.L4
	movl	$-1, %eax
	jmp	.L7
.L6:
	leaq	-284(%rbp), %rdx
	movq	-304(%rbp), %rcx
	leaq	-272(%rbp), %rax
	movq	%rcx, %rsi
	movq	%rax, %rdi
	movl	$0, %eax
	call	__isoc99_sscanf@PLT
	cmpl	$1, %eax
	jne	.L4
	movq	-280(%rbp), %rax
	movq	%rax, %rdi
	call	fclose@PLT
	movl	-284(%rbp), %eax
	jmp	.L7
.L4:
	movq	-280(%rbp), %rdx
	leaq	-272(%rbp), %rax
	movl	$256, %esi
	movq	%rax, %rdi
	call	fgets@PLT
	testq	%rax, %rax
	jne	.L6
	movq	-280(%rbp), %rax
	movq	%rax, %rdi
	call	fclose@PLT
	movl	$-1, %eax
.L7:
	movq	-8(%rbp), %rdx
	subq	%fs:40, %rdx
	je	.L8
	call	__stack_chk_fail@PLT
.L8:
	leave
	.cfi_def_cfa 7, 8
	ret
	.cfi_endproc
.LFE6:
	.size	file_parser, .-file_parser
	.globl	file_parser_char
	.type	file_parser_char, @function
file_parser_char:
.LFB7:
	.cfi_startproc
	endbr64
	pushq	%rbp
	.cfi_def_cfa_offset 16
	.cfi_offset 6, -16
	movq	%rsp, %rbp
	.cfi_def_cfa_register 6
	subq	$304, %rsp
	movq	%rdi, -296(%rbp)
	movq	%rsi, -304(%rbp)
	movq	%fs:40, %rax
	movq	%rax, -8(%rbp)
	xorl	%eax, %eax
	movq	-296(%rbp), %rax
	leaq	.LC65(%rip), %rdx
	movq	%rdx, %rsi
	movq	%rax, %rdi
	call	fopen@PLT
	movq	%rax, -288(%rbp)
	cmpq	$0, -288(%rbp)
	jne	.L12
	movl	$0, %eax
	jmp	.L16
.L15:
	leaq	-272(%rbp), %rax
	movq	%rax, %rdi
	call	strlen@PLT
	addq	$1, %rax
	movq	%rax, %rdi
	call	malloc@PLT
	movq	%rax, -280(%rbp)
	cmpq	$0, -280(%rbp)
	jne	.L13
	movq	-288(%rbp), %rax
	movq	%rax, %rdi
	call	fclose@PLT
	movl	$0, %eax
	jmp	.L16
.L13:
	movq	-280(%rbp), %rdx
	movq	-304(%rbp), %rcx
	leaq	-272(%rbp), %rax
	movq	%rcx, %rsi
	movq	%rax, %rdi
	movl	$0, %eax
	call	__isoc99_sscanf@PLT
	cmpl	$1, %eax
	jne	.L14
	movq	-288(%rbp), %rax
	movq	%rax, %rdi
	call	fclose@PLT
	movq	-280(%rbp), %rax
	jmp	.L16
.L14:
	movq	-280(%rbp), %rax
	movq	%rax, %rdi
	call	free@PLT
.L12:
	movq	-288(%rbp), %rdx
	leaq	-272(%rbp), %rax
	movl	$256, %esi
	movq	%rax, %rdi
	call	fgets@PLT
	testq	%rax, %rax
	jne	.L15
	movq	-288(%rbp), %rax
	movq	%rax, %rdi
	call	fclose@PLT
	movl	$0, %eax
.L16:
	movq	-8(%rbp), %rdx
	subq	%fs:40, %rdx
	je	.L17
	call	__stack_chk_fail@PLT
.L17:
	leave
	.cfi_def_cfa 7, 8
	ret
	.cfi_endproc
.LFE7:
	.size	file_parser_char, .-file_parser_char
	.globl	get_hostname
	.type	get_hostname, @function
get_hostname:
.LFB8:
	.cfi_startproc
	endbr64
	pushq	%rbp
	.cfi_def_cfa_offset 16
	.cfi_offset 6, -16
	movq	%rsp, %rbp
	.cfi_def_cfa_register 6
	subq	$272, %rsp
	movq	%fs:40, %rax
	movq	%rax, -8(%rbp)
	xorl	%eax, %eax
	leaq	-272(%rbp), %rax
	movl	$256, %esi
	movq	%rax, %rdi
	call	gethostname@PLT
	testl	%eax, %eax
	jne	.L19
	leaq	-272(%rbp), %rax
	movq	%rax, %rdi
	call	strdup@PLT
	jmp	.L21
.L19:
	movl	$0, %eax
.L21:
	movq	-8(%rbp), %rdx
	subq	%fs:40, %rdx
	je	.L22
	call	__stack_chk_fail@PLT
.L22:
	leave
	.cfi_def_cfa 7, 8
	ret
	.cfi_endproc
.LFE8:
	.size	get_hostname, .-get_hostname
	.section	.rodata
.LC66:
	.string	"/proc/%d/cmdline"
.LC67:
	.string	"\n"
.LC68:
	.string	"/bin/"
.LC69:
	.string	"/usr/local/bin"
	.text
	.globl	get_parent_shell
	.type	get_parent_shell, @function
get_parent_shell:
.LFB9:
	.cfi_startproc
	endbr64
	pushq	%rbp
	.cfi_def_cfa_offset 16
	.cfi_offset 6, -16
	movq	%rsp, %rbp
	.cfi_def_cfa_register 6
	subq	$1136, %rsp
	movq	%fs:40, %rax
	movq	%rax, -8(%rbp)
	xorl	%eax, %eax
	call	getppid@PLT
	movl	%eax, -1124(%rbp)
	movl	-1124(%rbp), %edx
	leaq	-1104(%rbp), %rax
	movl	%edx, %ecx
	leaq	.LC66(%rip), %rdx
	movl	$64, %esi
	movq	%rax, %rdi
	movl	$0, %eax
	call	snprintf@PLT
	leaq	-1104(%rbp), %rax
	leaq	.LC65(%rip), %rdx
	movq	%rdx, %rsi
	movq	%rax, %rdi
	call	fopen@PLT
	movq	%rax, -1120(%rbp)
	cmpq	$0, -1120(%rbp)
	jne	.L24
	movl	$0, %eax
	jmp	.L33
.L24:
	movq	-1120(%rbp), %rdx
	leaq	-1040(%rbp), %rax
	movl	$1024, %esi
	movq	%rax, %rdi
	call	fgets@PLT
	testq	%rax, %rax
	jne	.L26
	movq	-1120(%rbp), %rax
	movq	%rax, %rdi
	call	fclose@PLT
	movl	$0, %eax
	jmp	.L33
.L26:
	movq	-1120(%rbp), %rax
	movq	%rax, %rdi
	call	fclose@PLT
	leaq	-1040(%rbp), %rax
	leaq	.LC67(%rip), %rdx
	movq	%rdx, %rsi
	movq	%rax, %rdi
	call	strcspn@PLT
	movb	$0, -1040(%rbp,%rax)
	movzbl	-1040(%rbp), %eax
	cmpb	$45, %al
	jne	.L27
	leaq	-1040(%rbp), %rax
	movq	%rax, %rdi
	call	strlen@PLT
	movq	%rax, %rdx
	leaq	-1040(%rbp), %rax
	addq	$1, %rax
	leaq	-1040(%rbp), %rcx
	movq	%rax, %rsi
	movq	%rcx, %rdi
	call	memmove@PLT
.L27:
	leaq	-1040(%rbp), %rax
	movl	$10, %esi
	movq	%rax, %rdi
	call	strchr@PLT
	movq	%rax, -1112(%rbp)
	cmpq	$0, -1112(%rbp)
	je	.L28
	movq	-1112(%rbp), %rax
	movb	$0, (%rax)
.L28:
	leaq	-1040(%rbp), %rax
	movl	$5, %edx
	leaq	.LC68(%rip), %rcx
	movq	%rcx, %rsi
	movq	%rax, %rdi
	call	strncmp@PLT
	testl	%eax, %eax
	je	.L29
	leaq	-1040(%rbp), %rax
	leaq	.LC69(%rip), %rdx
	movq	%rdx, %rsi
	movq	%rax, %rdi
	call	strcmp@PLT
	testl	%eax, %eax
	jne	.L30
.L29:
	movzbl	-1039(%rbp), %eax
	cmpb	$117, %al
	jne	.L31
	movl	$15, %edx
	jmp	.L32
.L31:
	movl	$5, %edx
.L32:
	leaq	-1040(%rbp), %rax
	addq	%rdx, %rax
	movq	%rax, %rdi
	call	strdup@PLT
	jmp	.L33
.L30:
	leaq	-1040(%rbp), %rax
	movq	%rax, %rdi
	call	strdup@PLT
.L33:
	movq	-8(%rbp), %rdx
	subq	%fs:40, %rdx
	je	.L34
	call	__stack_chk_fail@PLT
.L34:
	leave
	.cfi_def_cfa 7, 8
	ret
	.cfi_endproc
.LFE9:
	.size	get_parent_shell, .-get_parent_shell
	.globl	get_uptime
	.type	get_uptime, @function
get_uptime:
.LFB10:
	.cfi_startproc
	endbr64
	pushq	%rbp
	.cfi_def_cfa_offset 16
	.cfi_offset 6, -16
	movq	%rsp, %rbp
	.cfi_def_cfa_register 6
	subq	$144, %rsp
	movq	%fs:40, %rax
	movq	%rax, -8(%rbp)
	xorl	%eax, %eax
	leaq	-128(%rbp), %rax
	movq	%rax, %rdi
	call	sysinfo@PLT
	movl	%eax, -132(%rbp)
	cmpl	$0, -132(%rbp)
	je	.L36
	movq	$-1, %rax
	jmp	.L38
.L36:
	movq	-128(%rbp), %rax
.L38:
	movq	-8(%rbp), %rdx
	subq	%fs:40, %rdx
	je	.L39
	call	__stack_chk_fail@PLT
.L39:
	leave
	.cfi_def_cfa 7, 8
	ret
	.cfi_endproc
.LFE10:
	.size	get_uptime, .-get_uptime
	.section	.rodata
	.align 8
.LC70:
	.string	"%d hours, %d minutes, %d seconds\n"
	.text
	.globl	format_uptime
	.type	format_uptime, @function
format_uptime:
.LFB11:
	.cfi_startproc
	endbr64
	pushq	%rbp
	.cfi_def_cfa_offset 16
	.cfi_offset 6, -16
	movq	%rsp, %rbp
	.cfi_def_cfa_register 6
	subq	$32, %rsp
	movq	%rdi, -24(%rbp)
	movq	-24(%rbp), %rcx
	movabsq	$5247073869855161349, %rdx
	movq	%rcx, %rax
	imulq	%rdx
	movq	%rdx, %rax
	sarq	$10, %rax
	sarq	$63, %rcx
	movq	%rcx, %rdx
	subq	%rdx, %rax
	movl	%eax, -12(%rbp)
	movq	-24(%rbp), %rcx
	movabsq	$5247073869855161349, %rdx
	movq	%rcx, %rax
	imulq	%rdx
	sarq	$10, %rdx
	movq	%rcx, %rax
	sarq	$63, %rax
	subq	%rax, %rdx
	imulq	$3600, %rdx, %rax
	subq	%rax, %rcx
	movq	%rcx, %rdx
	movq	%rdx, -24(%rbp)
	movq	-24(%rbp), %rcx
	movabsq	$-8608480567731124087, %rdx
	movq	%rcx, %rax
	imulq	%rdx
	leaq	(%rdx,%rcx), %rax
	sarq	$5, %rax
	sarq	$63, %rcx
	movq	%rcx, %rdx
	subq	%rdx, %rax
	movl	%eax, -8(%rbp)
	movq	-24(%rbp), %rcx
	movabsq	$-8608480567731124087, %rdx
	movq	%rcx, %rax
	imulq	%rdx
	leaq	(%rdx,%rcx), %rax
	sarq	$5, %rax
	movq	%rax, %rdx
	movq	%rcx, %rax
	sarq	$63, %rax
	subq	%rax, %rdx
	movq	%rdx, %rax
	salq	$4, %rax
	subq	%rdx, %rax
	salq	$2, %rax
	subq	%rax, %rcx
	movq	%rcx, %rdx
	movl	%edx, -4(%rbp)
	movl	-4(%rbp), %ecx
	movl	-8(%rbp), %edx
	movl	-12(%rbp), %eax
	movl	%eax, %esi
	leaq	.LC70(%rip), %rax
	movq	%rax, %rdi
	movl	$0, %eax
	call	printf@PLT
	nop
	leave
	.cfi_def_cfa 7, 8
	ret
	.cfi_endproc
.LFE11:
	.size	format_uptime, .-format_uptime
	.section	.rodata
.LC71:
	.string	"%s"
	.text
	.globl	pretext
	.type	pretext, @function
pretext:
.LFB12:
	.cfi_startproc
	endbr64
	pushq	%rbp
	.cfi_def_cfa_offset 16
	.cfi_offset 6, -16
	movq	%rsp, %rbp
	.cfi_def_cfa_register 6
	subq	$16, %rsp
	movq	%rdi, -8(%rbp)
	movq	-8(%rbp), %rax
	movq	%rax, %rsi
	leaq	.LC71(%rip), %rax
	movq	%rax, %rdi
	movl	$0, %eax
	call	printf@PLT
	movq	stdout(%rip), %rax
	movq	%rax, %rdi
	call	fflush@PLT
	nop
	leave
	.cfi_def_cfa 7, 8
	ret
	.cfi_endproc
.LFE12:
	.size	pretext, .-pretext
	.globl	fetchinfo
	.type	fetchinfo, @function
fetchinfo:
.LFB13:
	.cfi_startproc
	endbr64
	pushq	%rbp
	.cfi_def_cfa_offset 16
	.cfi_offset 6, -16
	movq	%rsp, %rbp
	.cfi_def_cfa_register 6
	subq	$16, %rsp
	movq	%rdi, -8(%rbp)
	movq	-8(%rbp), %rax
	movq	%rax, %rdi
	call	puts@PLT
	nop
	leave
	.cfi_def_cfa 7, 8
	ret
	.cfi_endproc
.LFE13:
	.size	fetchinfo, .-fetchinfo
	.section	.rodata
.LC72:
	.string	"uname"
	.text
	.globl	tinyinit
	.type	tinyinit, @function
tinyinit:
.LFB14:
	.cfi_startproc
	endbr64
	pushq	%rbp
	.cfi_def_cfa_offset 16
	.cfi_offset 6, -16
	movq	%rsp, %rbp
	.cfi_def_cfa_register 6
	leaq	tiny(%rip), %rax
	movq	%rax, %rdi
	call	uname@PLT
	cmpl	$-1, %eax
	jne	.L45
	leaq	.LC72(%rip), %rax
	movq	%rax, %rdi
	call	perror@PLT
.L45:
	nop
	popq	%rbp
	.cfi_def_cfa 7, 8
	ret
	.cfi_endproc
.LFE14:
	.size	tinyinit, .-tinyinit
	.section	.rodata
.LC73:
	.string	"[\302\267]"
.LC74:
	.string	"%s %s\n"
	.text
	.globl	rand_string
	.type	rand_string, @function
rand_string:
.LFB15:
	.cfi_startproc
	endbr64
	pushq	%rbp
	.cfi_def_cfa_offset 16
	.cfi_offset 6, -16
	movq	%rsp, %rbp
	.cfi_def_cfa_register 6
	subq	$16, %rsp
	movl	rand_enable(%rip), %eax
	cmpl	$1, %eax
	jne	.L48
	movl	$0, %edi
	call	time@PLT
	movl	%eax, %edi
	call	srand@PLT
	movl	$65, -8(%rbp)
	call	rand@PLT
	cltd
	idivl	-8(%rbp)
	movl	%edx, -4(%rbp)
	movq	stdout(%rip), %rax
	movq	%rax, %rdi
	call	fflush@PLT
	movl	-4(%rbp), %eax
	cltq
	leaq	0(,%rax,8), %rdx
	leaq	strings(%rip), %rax
	movq	(%rdx,%rax), %rax
	movq	%rax, %rdx
	leaq	.LC73(%rip), %rax
	movq	%rax, %rsi
	leaq	.LC74(%rip), %rax
	movq	%rax, %rdi
	movl	$0, %eax
	call	printf@PLT
.L48:
	nop
	leave
	.cfi_def_cfa 7, 8
	ret
	.cfi_endproc
.LFE15:
	.size	rand_string, .-rand_string
	.globl	message
	.type	message, @function
message:
.LFB16:
	.cfi_startproc
	endbr64
	pushq	%rbp
	.cfi_def_cfa_offset 16
	.cfi_offset 6, -16
	movq	%rsp, %rbp
	.cfi_def_cfa_register 6
	subq	$16, %rsp
	movq	%rdi, -8(%rbp)
	movl	custom_message(%rip), %eax
	cmpl	$1, %eax
	jne	.L51
	movq	stdout(%rip), %rax
	movq	%rax, %rdi
	call	fflush@PLT
	movq	-8(%rbp), %rax
	movq	%rax, %rdx
	leaq	.LC73(%rip), %rax
	movq	%rax, %rsi
	leaq	.LC74(%rip), %rax
	movq	%rax, %rdi
	movl	$0, %eax
	call	printf@PLT
.L51:
	nop
	leave
	.cfi_def_cfa 7, 8
	ret
	.cfi_endproc
.LFE16:
	.size	message, .-message
	.globl	get_cpu_count
	.type	get_cpu_count, @function
get_cpu_count:
.LFB17:
	.cfi_startproc
	endbr64
	pushq	%rbp
	.cfi_def_cfa_offset 16
	.cfi_offset 6, -16
	movq	%rsp, %rbp
	.cfi_def_cfa_register 6
	movl	$84, %edi
	call	sysconf@PLT
	popq	%rbp
	.cfi_def_cfa 7, 8
	ret
	.cfi_endproc
.LFE17:
	.size	get_cpu_count, .-get_cpu_count
	.section	.rodata
.LC75:
	.string	"USER"
.LC76:
	.string	"%s@"
.LC77:
	.string	"strlen"
	.text
	.globl	tinyuser
	.type	tinyuser, @function
tinyuser:
.LFB18:
	.cfi_startproc
	endbr64
	pushq	%rbp
	.cfi_def_cfa_offset 16
	.cfi_offset 6, -16
	movq	%rsp, %rbp
	.cfi_def_cfa_register 6
	pushq	%rbx
	subq	$24, %rsp
	.cfi_offset 3, -24
	call	tinyinit
	leaq	.LC75(%rip), %rax
	movq	%rax, %rdi
	call	getenv@PLT
	movq	%rax, -24(%rbp)
	movq	-24(%rbp), %rax
	movq	%rax, %rsi
	leaq	.LC76(%rip), %rax
	movq	%rax, %rdi
	movl	$0, %eax
	call	printf@PLT
	cmpq	$0, -24(%rbp)
	je	.L55
	movq	-24(%rbp), %rax
	movq	%rax, %rdi
	call	strlen@PLT
	movl	%eax, %ebx
	leaq	65+tiny(%rip), %rax
	movq	%rax, %rdi
	call	strlen@PLT
	addl	%ebx, %eax
	addl	$1, %eax
	movl	%eax, -28(%rbp)
	leaq	65+tiny(%rip), %rax
	movq	%rax, %rdi
	call	puts@PLT
	movl	$0, -32(%rbp)
	jmp	.L56
.L57:
	movl	$45, %edi
	call	putchar@PLT
	addl	$1, -32(%rbp)
.L56:
	movl	-32(%rbp), %eax
	cmpl	-28(%rbp), %eax
	jl	.L57
	movl	$10, %edi
	call	putchar@PLT
	jmp	.L59
.L55:
	leaq	.LC77(%rip), %rax
	movq	%rax, %rdi
	call	perror@PLT
.L59:
	nop
	movq	-8(%rbp), %rbx
	leave
	.cfi_def_cfa 7, 8
	ret
	.cfi_endproc
.LFE18:
	.size	tinyuser, .-tinyuser
	.section	.rodata
.LC78:
	.string	"OS:         "
.LC79:
	.string	"Linux"
.LC80:
	.string	"GNU/"
	.text
	.globl	tinyos
	.type	tinyos, @function
tinyos:
.LFB19:
	.cfi_startproc
	endbr64
	pushq	%rbp
	.cfi_def_cfa_offset 16
	.cfi_offset 6, -16
	movq	%rsp, %rbp
	.cfi_def_cfa_register 6
	call	tinyinit
	leaq	.LC78(%rip), %rax
	movq	%rax, %rdi
	call	pretext
	leaq	.LC79(%rip), %rax
	movq	%rax, %rsi
	leaq	tiny(%rip), %rax
	movq	%rax, %rdi
	call	strcmp@PLT
	testl	%eax, %eax
	jne	.L61
	leaq	.LC80(%rip), %rax
	movq	%rax, %rdi
	movl	$0, %eax
	call	printf@PLT
.L61:
	leaq	tiny(%rip), %rax
	movq	%rax, %rdi
	call	fetchinfo
	nop
	popq	%rbp
	.cfi_def_cfa 7, 8
	ret
	.cfi_endproc
.LFE19:
	.size	tinyos, .-tinyos
	.section	.rodata
.LC81:
	.string	"Distro:     "
.LC82:
	.string	"NAME=%s"
.LC83:
	.string	"/etc/os-release"
.LC84:
	.string	"VERSION_ID=\"%[^\"]\"%*c"
.LC85:
	.string	"UNIX-Like OS"
.LC86:
	.string	" "
.LC87:
	.string	"%s %s %s \n"
	.text
	.globl	tinydist
	.type	tinydist, @function
tinydist:
.LFB20:
	.cfi_startproc
	endbr64
	pushq	%rbp
	.cfi_def_cfa_offset 16
	.cfi_offset 6, -16
	movq	%rsp, %rbp
	.cfi_def_cfa_register 6
	subq	$16, %rsp
	leaq	.LC81(%rip), %rax
	movq	%rax, %rdi
	call	pretext
	leaq	.LC82(%rip), %rax
	movq	%rax, %rsi
	leaq	.LC83(%rip), %rax
	movq	%rax, %rdi
	call	file_parser_char
	movq	%rax, -16(%rbp)
	leaq	.LC84(%rip), %rax
	movq	%rax, %rsi
	leaq	.LC83(%rip), %rax
	movq	%rax, %rdi
	call	file_parser_char
	movq	%rax, -8(%rbp)
	movq	-16(%rbp), %rax
	leaq	.LC28(%rip), %rdx
	movq	%rdx, %rsi
	movq	%rax, %rdi
	call	strcmp@PLT
	testl	%eax, %eax
	jne	.L63
	movq	-8(%rbp), %rax
	leaq	.LC28(%rip), %rdx
	movq	%rdx, %rsi
	movq	%rax, %rdi
	call	strcmp@PLT
	testl	%eax, %eax
	jne	.L63
	leaq	.LC85(%rip), %rax
	movq	%rax, -16(%rbp)
	leaq	.LC86(%rip), %rax
	movq	%rax, -8(%rbp)
.L63:
	call	tinyinit
	movq	-8(%rbp), %rdx
	movq	-16(%rbp), %rax
	leaq	260+tiny(%rip), %rcx
	movq	%rax, %rsi
	leaq	.LC87(%rip), %rax
	movq	%rax, %rdi
	movl	$0, %eax
	call	printf@PLT
	movq	-16(%rbp), %rax
	movq	%rax, %rdi
	call	free@PLT
	movq	-8(%rbp), %rax
	movq	%rax, %rdi
	call	free@PLT
	nop
	leave
	.cfi_def_cfa 7, 8
	ret
	.cfi_endproc
.LFE20:
	.size	tinydist, .-tinydist
	.section	.rodata
.LC88:
	.string	"Kernel:     "
	.text
	.globl	tinykern
	.type	tinykern, @function
tinykern:
.LFB21:
	.cfi_startproc
	endbr64
	pushq	%rbp
	.cfi_def_cfa_offset 16
	.cfi_offset 6, -16
	movq	%rsp, %rbp
	.cfi_def_cfa_register 6
	call	tinyinit
	leaq	.LC88(%rip), %rax
	movq	%rax, %rdi
	call	pretext
	leaq	130+tiny(%rip), %rax
	movq	%rax, %rdi
	call	fetchinfo
	nop
	popq	%rbp
	.cfi_def_cfa 7, 8
	ret
	.cfi_endproc
.LFE21:
	.size	tinykern, .-tinykern
	.section	.rodata
.LC89:
	.string	"Shell:      "
	.text
	.globl	tinyshell
	.type	tinyshell, @function
tinyshell:
.LFB22:
	.cfi_startproc
	endbr64
	pushq	%rbp
	.cfi_def_cfa_offset 16
	.cfi_offset 6, -16
	movq	%rsp, %rbp
	.cfi_def_cfa_register 6
	subq	$16, %rsp
	leaq	.LC89(%rip), %rax
	movq	%rax, %rdi
	call	pretext
	call	get_parent_shell
	movq	%rax, -8(%rbp)
	movq	-8(%rbp), %rax
	movq	%rax, %rdi
	call	puts@PLT
	movq	-8(%rbp), %rax
	movq	%rax, %rdi
	call	free@PLT
	nop
	leave
	.cfi_def_cfa 7, 8
	ret
	.cfi_endproc
.LFE22:
	.size	tinyshell, .-tinyshell
	.section	.rodata
.LC90:
	.string	"Uptime:     "
	.text
	.globl	tinyuptime
	.type	tinyuptime, @function
tinyuptime:
.LFB23:
	.cfi_startproc
	endbr64
	pushq	%rbp
	.cfi_def_cfa_offset 16
	.cfi_offset 6, -16
	movq	%rsp, %rbp
	.cfi_def_cfa_register 6
	subq	$16, %rsp
	call	get_uptime
	movq	%rax, -8(%rbp)
	cmpq	$-1, -8(%rbp)
	je	.L68
	leaq	.LC90(%rip), %rax
	movq	%rax, %rdi
	call	pretext
	movq	-8(%rbp), %rax
	movq	%rax, %rdi
	call	format_uptime
.L68:
	nop
	leave
	.cfi_def_cfa 7, 8
	ret
	.cfi_endproc
.LFE23:
	.size	tinyuptime, .-tinyuptime
	.section	.rodata
.LC91:
	.string	"XDG_CURRENT_DESKTOP"
.LC92:
	.string	"DE/WM:\t    "
	.text
	.globl	tinywm
	.type	tinywm, @function
tinywm:
.LFB24:
	.cfi_startproc
	endbr64
	pushq	%rbp
	.cfi_def_cfa_offset 16
	.cfi_offset 6, -16
	movq	%rsp, %rbp
	.cfi_def_cfa_register 6
	subq	$16, %rsp
	leaq	.LC91(%rip), %rax
	movq	%rax, %rdi
	call	getenv@PLT
	movq	%rax, -8(%rbp)
	cmpq	$0, -8(%rbp)
	je	.L71
	leaq	.LC92(%rip), %rax
	movq	%rax, %rdi
	call	pretext
	movq	-8(%rbp), %rax
	movq	%rax, %rdi
	call	puts@PLT
.L71:
	nop
	leave
	.cfi_def_cfa 7, 8
	ret
	.cfi_endproc
.LFE24:
	.size	tinywm, .-tinywm
	.section	.rodata
.LC93:
	.string	"MemAvailable: %d kB"
.LC94:
	.string	"/proc/meminfo"
.LC95:
	.string	"MemTotal: %d kB"
.LC96:
	.string	"MemFree: %d kB"
.LC98:
	.string	"RAM:        "
	.align 8
.LC99:
	.string	"%.2f GiB used / %.2f GiB total (%.2f GiB free)\n"
	.text
	.globl	tinyram
	.type	tinyram, @function
tinyram:
.LFB25:
	.cfi_startproc
	endbr64
	pushq	%rbp
	.cfi_def_cfa_offset 16
	.cfi_offset 6, -16
	movq	%rsp, %rbp
	.cfi_def_cfa_register 6
	subq	$48, %rsp
	leaq	.LC93(%rip), %rax
	movq	%rax, %rsi
	leaq	.LC94(%rip), %rax
	movq	%rax, %rdi
	call	file_parser
	movl	%eax, -40(%rbp)
	leaq	.LC95(%rip), %rax
	movq	%rax, %rsi
	leaq	.LC94(%rip), %rax
	movq	%rax, %rdi
	call	file_parser
	movl	%eax, -36(%rbp)
	cmpl	$-1, -40(%rbp)
	jne	.L73
	leaq	.LC96(%rip), %rax
	movq	%rax, %rsi
	leaq	.LC94(%rip), %rax
	movq	%rax, %rdi
	call	file_parser
	jmp	.L74
.L73:
	movl	-40(%rbp), %eax
.L74:
	movl	%eax, -32(%rbp)
	cmpl	$-1, -36(%rbp)
	je	.L76
	cmpl	$-1, -32(%rbp)
	je	.L76
	movl	-36(%rbp), %eax
	subl	-32(%rbp), %eax
	movl	%eax, -28(%rbp)
	pxor	%xmm0, %xmm0
	cvtsi2sdl	-36(%rbp), %xmm0
	movsd	.LC97(%rip), %xmm1
	divsd	%xmm1, %xmm0
	movsd	%xmm0, -24(%rbp)
	pxor	%xmm0, %xmm0
	cvtsi2sdl	-28(%rbp), %xmm0
	movsd	.LC97(%rip), %xmm1
	divsd	%xmm1, %xmm0
	movsd	%xmm0, -16(%rbp)
	pxor	%xmm0, %xmm0
	cvtsi2sdl	-32(%rbp), %xmm0
	movsd	.LC97(%rip), %xmm1
	divsd	%xmm1, %xmm0
	movsd	%xmm0, -8(%rbp)
	leaq	.LC98(%rip), %rax
	movq	%rax, %rdi
	call	pretext
	movsd	-8(%rbp), %xmm1
	movsd	-24(%rbp), %xmm0
	movq	-16(%rbp), %rax
	movapd	%xmm1, %xmm2
	movapd	%xmm0, %xmm1
	movq	%rax, %xmm0
	leaq	.LC99(%rip), %rax
	movq	%rax, %rdi
	movl	$3, %eax
	call	printf@PLT
.L76:
	nop
	leave
	.cfi_def_cfa 7, 8
	ret
	.cfi_endproc
.LFE25:
	.size	tinyram, .-tinyram
	.section	.rodata
.LC100:
	.string	"CPU:        "
.LC101:
	.string	"model name      : %[^\n]"
.LC102:
	.string	"/proc/cpuinfo"
.LC103:
	.string	"cpu      : %[^\n]"
.LC104:
	.string	"%s (%d)\n"
	.text
	.globl	tinycpu
	.type	tinycpu, @function
tinycpu:
.LFB26:
	.cfi_startproc
	endbr64
	pushq	%rbp
	.cfi_def_cfa_offset 16
	.cfi_offset 6, -16
	movq	%rsp, %rbp
	.cfi_def_cfa_register 6
	subq	$32, %rsp
	call	tinyinit
	leaq	.LC100(%rip), %rax
	movq	%rax, %rdi
	call	pretext
	leaq	.LC101(%rip), %rax
	movq	%rax, %rsi
	leaq	.LC102(%rip), %rax
	movq	%rax, %rdi
	call	file_parser_char
	movq	%rax, -16(%rbp)
	leaq	.LC103(%rip), %rax
	movq	%rax, %rsi
	leaq	.LC102(%rip), %rax
	movq	%rax, %rdi
	call	file_parser_char
	movq	%rax, -8(%rbp)
	call	get_cpu_count
	movl	%eax, -20(%rbp)
	cmpq	$0, -16(%rbp)
	je	.L78
	movl	-20(%rbp), %edx
	movq	-16(%rbp), %rax
	movq	%rax, %rsi
	leaq	.LC104(%rip), %rax
	movq	%rax, %rdi
	movl	$0, %eax
	call	printf@PLT
	movq	-16(%rbp), %rax
	movq	%rax, %rdi
	call	free@PLT
	jmp	.L80
.L78:
	cmpq	$0, -8(%rbp)
	je	.L80
	movl	-20(%rbp), %edx
	movq	-8(%rbp), %rax
	movq	%rax, %rsi
	leaq	.LC104(%rip), %rax
	movq	%rax, %rdi
	movl	$0, %eax
	call	printf@PLT
	movq	-8(%rbp), %rax
	movq	%rax, %rdi
	call	free@PLT
.L80:
	nop
	leave
	.cfi_def_cfa 7, 8
	ret
	.cfi_endproc
.LFE26:
	.size	tinycpu, .-tinycpu
	.section	.rodata
.LC105:
	.string	"SwapTotal: %d kB"
.LC106:
	.string	"SwapFree: %d kB"
.LC107:
	.string	"Swap:       "
	.text
	.globl	tinyswap
	.type	tinyswap, @function
tinyswap:
.LFB27:
	.cfi_startproc
	endbr64
	pushq	%rbp
	.cfi_def_cfa_offset 16
	.cfi_offset 6, -16
	movq	%rsp, %rbp
	.cfi_def_cfa_register 6
	subq	$48, %rsp
	leaq	.LC105(%rip), %rax
	movq	%rax, %rsi
	leaq	.LC94(%rip), %rax
	movq	%rax, %rdi
	call	file_parser
	movl	%eax, -36(%rbp)
	leaq	.LC106(%rip), %rax
	movq	%rax, %rsi
	leaq	.LC94(%rip), %rax
	movq	%rax, %rdi
	call	file_parser
	movl	%eax, -32(%rbp)
	cmpl	$-1, -36(%rbp)
	je	.L83
	cmpl	$-1, -32(%rbp)
	je	.L83
	movl	-36(%rbp), %eax
	subl	-32(%rbp), %eax
	movl	%eax, -28(%rbp)
	pxor	%xmm0, %xmm0
	cvtsi2sdl	-36(%rbp), %xmm0
	movsd	.LC97(%rip), %xmm1
	divsd	%xmm1, %xmm0
	movsd	%xmm0, -24(%rbp)
	pxor	%xmm0, %xmm0
	cvtsi2sdl	-28(%rbp), %xmm0
	movsd	.LC97(%rip), %xmm1
	divsd	%xmm1, %xmm0
	movsd	%xmm0, -16(%rbp)
	pxor	%xmm0, %xmm0
	cvtsi2sdl	-32(%rbp), %xmm0
	movsd	.LC97(%rip), %xmm1
	divsd	%xmm1, %xmm0
	movsd	%xmm0, -8(%rbp)
	leaq	.LC107(%rip), %rax
	movq	%rax, %rdi
	call	pretext
	movsd	-8(%rbp), %xmm1
	movsd	-24(%rbp), %xmm0
	movq	-16(%rbp), %rax
	movapd	%xmm1, %xmm2
	movapd	%xmm0, %xmm1
	movq	%rax, %xmm0
	leaq	.LC99(%rip), %rax
	movq	%rax, %rdi
	movl	$3, %eax
	call	printf@PLT
.L83:
	nop
	leave
	.cfi_def_cfa 7, 8
	ret
	.cfi_endproc
.LFE27:
	.size	tinyswap, .-tinyswap
	.globl	tinyfetch
	.type	tinyfetch, @function
tinyfetch:
.LFB28:
	.cfi_startproc
	endbr64
	pushq	%rbp
	.cfi_def_cfa_offset 16
	.cfi_offset 6, -16
	movq	%rsp, %rbp
	.cfi_def_cfa_register 6
	subq	$16, %rsp
	movq	%rdi, -8(%rbp)
	call	tinyuser
	call	rand_string
	movq	-8(%rbp), %rax
	movq	%rax, %rdi
	call	message
	call	tinyos
	call	tinydist
	call	tinykern
	call	tinyshell
	call	tinyuptime
	call	tinywm
	call	tinycpu
	call	tinyram
	call	tinyswap
	nop
	leave
	.cfi_def_cfa 7, 8
	ret
	.cfi_endproc
.LFE28:
	.size	tinyfetch, .-tinyfetch
	.section	.rodata
.LC108:
	.string	"-v"
.LC109:
	.string	"--version"
.LC110:
	.string	"4.1a"
.LC111:
	.string	"%s v%s\n"
.LC112:
	.string	"-h"
.LC113:
	.string	"--help"
	.align 8
.LC114:
	.ascii	"tinyfetch help\n -v or --version     \tprint the installed v"
	.ascii	"ersion of tinyfe"
	.string	"tch\n -h or --help        \tprint this help banner\n -m or --message     \tadd a custom message at the end of arguments\n -r or --random         add a random message before the fetch\n --color \t    \tadd some color to your fetch! requires lolcat to be installed.\n"
.LC115:
	.string	"%s %s"
.LC116:
	.string	"-m"
.LC117:
	.string	"--message"
.LC118:
	.string	"no message provided."
.LC119:
	.string	"-r"
.LC120:
	.string	"--random"
.LC121:
	.string	"--color"
.LC122:
	.string	"/usr/bin/lolcat"
.LC123:
	.string	"access"
	.align 8
.LC124:
	.string	"lolcat is not installed! cannot print using colors."
.LC125:
	.string	"-o"
.LC126:
	.string	"-d"
.LC127:
	.string	"-k"
.LC128:
	.string	"-s"
.LC129:
	.string	"-u"
.LC130:
	.string	"-w"
.LC131:
	.string	"--ram"
.LC132:
	.string	"-c"
.LC133:
	.string	"--swap"
.LC134:
	.string	"--genie"
.LC135:
	.string	"--user"
	.align 8
.LC136:
	.string	"tinyfetch: Unknown command line argument.\n %s %s"
	.text
	.globl	main
	.type	main, @function
main:
.LFB29:
	.cfi_startproc
	endbr64
	pushq	%rbp
	.cfi_def_cfa_offset 16
	.cfi_offset 6, -16
	movq	%rsp, %rbp
	.cfi_def_cfa_register 6
	subq	$288, %rsp
	movl	%edi, -276(%rbp)
	movq	%rsi, -288(%rbp)
	movq	%fs:40, %rax
	movq	%rax, -8(%rbp)
	xorl	%eax, %eax
	cmpl	$1, -276(%rbp)
	jne	.L86
	movl	$0, %edi
	call	tinyfetch
	movl	$0, %eax
	jmp	.L87
.L86:
	cmpl	$1, -276(%rbp)
	jle	.L88
	movq	-288(%rbp), %rax
	addq	$8, %rax
	movq	(%rax), %rax
	leaq	.LC108(%rip), %rdx
	movq	%rdx, %rsi
	movq	%rax, %rdi
	call	strcmp@PLT
	testl	%eax, %eax
	je	.L89
	movq	-288(%rbp), %rax
	addq	$8, %rax
	movq	(%rax), %rax
	leaq	.LC109(%rip), %rdx
	movq	%rdx, %rsi
	movq	%rax, %rdi
	call	strcmp@PLT
	testl	%eax, %eax
	jne	.L90
.L89:
	movq	-288(%rbp), %rax
	movq	(%rax), %rax
	leaq	.LC110(%rip), %rdx
	movq	%rax, %rsi
	leaq	.LC111(%rip), %rax
	movq	%rax, %rdi
	movl	$0, %eax
	call	printf@PLT
	movl	$0, %eax
	jmp	.L87
.L90:
	movq	-288(%rbp), %rax
	addq	$8, %rax
	movq	(%rax), %rax
	leaq	.LC112(%rip), %rdx
	movq	%rdx, %rsi
	movq	%rax, %rdi
	call	strcmp@PLT
	testl	%eax, %eax
	je	.L91
	movq	-288(%rbp), %rax
	addq	$8, %rax
	movq	(%rax), %rax
	leaq	.LC113(%rip), %rdx
	movq	%rdx, %rsi
	movq	%rax, %rdi
	call	strcmp@PLT
	testl	%eax, %eax
	jne	.L92
.L91:
	leaq	.LC114(%rip), %rax
	movq	%rax, %rdx
	leaq	.LC73(%rip), %rax
	movq	%rax, %rsi
	leaq	.LC115(%rip), %rax
	movq	%rax, %rdi
	movl	$0, %eax
	call	printf@PLT
	movl	$0, %eax
	jmp	.L87
.L92:
	movq	-288(%rbp), %rax
	addq	$8, %rax
	movq	(%rax), %rax
	leaq	.LC116(%rip), %rdx
	movq	%rdx, %rsi
	movq	%rax, %rdi
	call	strcmp@PLT
	testl	%eax, %eax
	je	.L93
	movq	-288(%rbp), %rax
	addq	$8, %rax
	movq	(%rax), %rax
	leaq	.LC117(%rip), %rdx
	movq	%rdx, %rsi
	movq	%rax, %rdi
	call	strcmp@PLT
	testl	%eax, %eax
	jne	.L94
.L93:
	cmpl	$2, -276(%rbp)
	jg	.L95
	leaq	.LC118(%rip), %rax
	movq	%rax, %rdi
	call	puts@PLT
	movl	$1, %eax
	jmp	.L87
.L95:
	movl	$1, custom_message(%rip)
	movq	-288(%rbp), %rax
	addq	$16, %rax
	movq	(%rax), %rax
	movq	%rax, %rdi
	call	tinyfetch
	movl	$0, %eax
	jmp	.L87
.L94:
	movq	-288(%rbp), %rax
	addq	$8, %rax
	movq	(%rax), %rax
	leaq	.LC119(%rip), %rdx
	movq	%rdx, %rsi
	movq	%rax, %rdi
	call	strcmp@PLT
	testl	%eax, %eax
	je	.L96
	movq	-288(%rbp), %rax
	addq	$8, %rax
	movq	(%rax), %rax
	leaq	.LC120(%rip), %rdx
	movq	%rdx, %rsi
	movq	%rax, %rdi
	call	strcmp@PLT
	testl	%eax, %eax
	je	.L96
	movq	-288(%rbp), %rax
	addq	$8, %rax
	movq	(%rax), %rax
	leaq	.LC119(%rip), %rdx
	movq	%rdx, %rsi
	movq	%rax, %rdi
	call	strcmp@PLT
	testl	%eax, %eax
	jne	.L97
	movq	-288(%rbp), %rax
	addq	$16, %rax
	movq	(%rax), %rax
	leaq	.LC121(%rip), %rdx
	movq	%rdx, %rsi
	movq	%rax, %rdi
	call	strcmp@PLT
	testl	%eax, %eax
	jne	.L97
.L96:
	movl	$1, rand_enable(%rip)
	movl	$0, %edi
	call	tinyfetch
	jmp	.L88
.L97:
	movq	-288(%rbp), %rax
	addq	$8, %rax
	movq	(%rax), %rax
	leaq	.LC121(%rip), %rdx
	movq	%rdx, %rsi
	movq	%rax, %rdi
	call	strcmp@PLT
	testl	%eax, %eax
	jne	.L98
	movl	$1, rand_enable(%rip)
	movl	$0, %esi
	leaq	.LC122(%rip), %rax
	movq	%rax, %rdi
	call	access@PLT
	cmpl	$-1, %eax
	jne	.L99
	leaq	.LC123(%rip), %rax
	movq	%rax, %rdi
	call	perror@PLT
	leaq	.LC124(%rip), %rax
	movq	%rax, %rdi
	call	puts@PLT
	movl	$1, %eax
	jmp	.L87
.L99:
	movq	-288(%rbp), %rax
	movq	(%rax), %rcx
	leaq	-272(%rbp), %rax
	movl	$255, %edx
	movq	%rcx, %rsi
	movq	%rax, %rdi
	call	strncpy@PLT
	movb	$0, -17(%rbp)
	leaq	-272(%rbp), %rax
	movq	%rax, %rdi
	call	strlen@PLT
	movq	%rax, %rdx
	leaq	-272(%rbp), %rax
	addq	%rdx, %rax
	movabsq	$7017571870184602656, %rcx
	movq	%rcx, (%rax)
	movw	$116, 8(%rax)
	leaq	-272(%rbp), %rax
	movq	%rax, %rsi
	leaq	.LC71(%rip), %rax
	movq	%rax, %rdi
	movl	$0, %eax
	call	printf@PLT
	leaq	-272(%rbp), %rax
	movq	%rax, %rdi
	call	system@PLT
	jmp	.L88
.L98:
	movq	-288(%rbp), %rax
	addq	$8, %rax
	movq	(%rax), %rax
	leaq	.LC125(%rip), %rdx
	movq	%rdx, %rsi
	movq	%rax, %rdi
	call	strcmp@PLT
	testl	%eax, %eax
	jne	.L100
	call	tinyos
	jmp	.L88
.L100:
	movq	-288(%rbp), %rax
	addq	$8, %rax
	movq	(%rax), %rax
	leaq	.LC126(%rip), %rdx
	movq	%rdx, %rsi
	movq	%rax, %rdi
	call	strcmp@PLT
	testl	%eax, %eax
	jne	.L101
	call	tinydist
	jmp	.L88
.L101:
	movq	-288(%rbp), %rax
	addq	$8, %rax
	movq	(%rax), %rax
	leaq	.LC127(%rip), %rdx
	movq	%rdx, %rsi
	movq	%rax, %rdi
	call	strcmp@PLT
	testl	%eax, %eax
	jne	.L102
	call	tinykern
	jmp	.L88
.L102:
	movq	-288(%rbp), %rax
	addq	$8, %rax
	movq	(%rax), %rax
	leaq	.LC128(%rip), %rdx
	movq	%rdx, %rsi
	movq	%rax, %rdi
	call	strcmp@PLT
	testl	%eax, %eax
	jne	.L103
	call	tinyshell
	jmp	.L88
.L103:
	movq	-288(%rbp), %rax
	addq	$8, %rax
	movq	(%rax), %rax
	leaq	.LC129(%rip), %rdx
	movq	%rdx, %rsi
	movq	%rax, %rdi
	call	strcmp@PLT
	testl	%eax, %eax
	jne	.L104
	call	tinyuptime
	jmp	.L88
.L104:
	movq	-288(%rbp), %rax
	addq	$8, %rax
	movq	(%rax), %rax
	leaq	.LC130(%rip), %rdx
	movq	%rdx, %rsi
	movq	%rax, %rdi
	call	strcmp@PLT
	testl	%eax, %eax
	jne	.L105
	call	tinywm
	jmp	.L88
.L105:
	movq	-288(%rbp), %rax
	addq	$8, %rax
	movq	(%rax), %rax
	leaq	.LC131(%rip), %rdx
	movq	%rdx, %rsi
	movq	%rax, %rdi
	call	strcmp@PLT
	testl	%eax, %eax
	jne	.L106
	call	tinyram
	jmp	.L88
.L106:
	movq	-288(%rbp), %rax
	addq	$8, %rax
	movq	(%rax), %rax
	leaq	.LC132(%rip), %rdx
	movq	%rdx, %rsi
	movq	%rax, %rdi
	call	strcmp@PLT
	testl	%eax, %eax
	jne	.L107
	call	tinycpu
	jmp	.L88
.L107:
	movq	-288(%rbp), %rax
	addq	$8, %rax
	movq	(%rax), %rax
	leaq	.LC133(%rip), %rdx
	movq	%rdx, %rsi
	movq	%rax, %rdi
	call	strcmp@PLT
	testl	%eax, %eax
	jne	.L108
	call	tinyswap
	jmp	.L88
.L108:
	movq	-288(%rbp), %rax
	addq	$8, %rax
	movq	(%rax), %rax
	leaq	.LC134(%rip), %rdx
	movq	%rdx, %rsi
	movq	%rax, %rdi
	call	strcmp@PLT
	testl	%eax, %eax
	jne	.L109
	movl	$1, rand_enable(%rip)
	call	rand_string
	jmp	.L88
.L109:
	movq	-288(%rbp), %rax
	addq	$8, %rax
	movq	(%rax), %rax
	leaq	.LC135(%rip), %rdx
	movq	%rdx, %rsi
	movq	%rax, %rdi
	call	strcmp@PLT
	testl	%eax, %eax
	jne	.L110
	call	tinyuser
	jmp	.L88
.L110:
	leaq	.LC114(%rip), %rax
	movq	%rax, %rdx
	leaq	.LC73(%rip), %rax
	movq	%rax, %rsi
	leaq	.LC136(%rip), %rax
	movq	%rax, %rdi
	movl	$0, %eax
	call	printf@PLT
	movl	$1, %eax
	jmp	.L87
.L88:
	movl	$0, %eax
.L87:
	movq	-8(%rbp), %rdx
	subq	%fs:40, %rdx
	je	.L111
	call	__stack_chk_fail@PLT
.L111:
	leave
	.cfi_def_cfa 7, 8
	ret
	.cfi_endproc
.LFE29:
	.size	main, .-main
	.section	.rodata
	.align 8
.LC97:
	.long	0
	.long	1093664768
	.ident	"GCC: (Gentoo 13.2.1_p20240503 p15) 13.2.1 20240503"
	.section	.note.GNU-stack,"",@progbits
	.section	.note.gnu.property,"a"
	.align 8
	.long	1f - 0f
	.long	4f - 1f
	.long	5
0:
	.string	"GNU"
1:
	.align 8
	.long	0xc0000002
	.long	3f - 2f
2:
	.long	0x3
3:
	.align 8
4:
